c__builtin__
set
p0
((lp1
S'0065-0136670531'
p2
aS'0065-0136659459'
p3
aS'0065-0136665886'
p4
aS'0065-0136651817'
p5
aS'0065-0136655780'
p6
aS'0065-0136673193'
p7
aS'0065-0136659288'
p8
aS'0065-0136671473'
p9
aS'0065-0136653169'
p10
aS'0065-0136660676'
p11
aS'0065-0136667521'
p12
aS'0065-0136661759'
p13
atp14
Rp15
.